; Function Attrs: mustprogress nofree norecurse nosync nounwind willreturn memory(argmem: readwrite) uwtable
define void @_ZN32pxrInternal_v0_24__pxrReserved__9GfRange1fC2ERKNS_9GfRange1dE(ptr nocapture noundef nonnull writeonly align 4 dereferenceable(8) %0, ptr nocapture noundef nonnull readonly align 8 dereferenceable(16) %1) unnamed_addr #2 align 2 {
  %3 = load double, ptr %1, align 8
  %4 = fptrunc double %3 to float
  store float %4, ptr %0, align 4
  %5 = getelementptr inbounds nuw i8, ptr %0, i64 4
  %6 = getelementptr inbounds nuw i8, ptr %1, i64 8
  %7 = load double, ptr %6, align 8
  %8 = fptrunc double %7 to float
  store float %8, ptr %5, align 4
  ret void
}